target datalayout = "e-m:e-p270:32:32-p271:32:32-p272:64:64-i64:64-i128:128-f80:128-n8:16:32:64-S128"
target triple = "x86_64-pc-linux-gnu"

%"class.ZXing::BitMatrix" = type { i32, i32, %"class.std::vector" }
%"class.std::vector" = type { %"struct.std::_Vector_base" }
%"struct.std::_Vector_base" = type { %"struct.std::_Vector_base<unsigned char, std::allocator<unsigned char>>::_Vector_impl" }
%"struct.std::_Vector_base<unsigned char, std::allocator<unsigned char>>::_Vector_impl" = type { %"struct.std::_Vector_base<unsigned char, std::allocator<unsigned char>>::_Vector_impl_data" }
%"struct.std::_Vector_base<unsigned char, std::allocator<unsigned char>>::_Vector_impl_data" = type { ptr, ptr, ptr }
%"struct.ZXing::Range" = type { %"struct.ZXing::StrideIter", %"struct.ZXing::StrideIter" }
%"struct.ZXing::StrideIter" = type { ptr, i32 }
%"struct.ZXing::Range.6" = type { ptr, ptr }

; Function Attrs: mustprogress nounwind uwtable
define linkonce_odr noundef ptr @_ZNKSt6vectorIhSaIhEE11_M_data_ptrIhEEPT_S4_(ptr noundef nonnull align 8 dereferenceable(24) %0, ptr noundef %1) #4 comdat align 2 {
  %3 = alloca ptr, align 8
  %4 = alloca ptr, align 8
  store ptr %0, ptr %3, align 8, !tbaa !22
  store ptr %1, ptr %4, align 8, !tbaa !34
  %5 = load ptr, ptr %4, align 8, !tbaa !34
  ret ptr %5
}

; Function Attrs: mustprogress nounwind uwtable
define linkonce_odr void @_ZN5ZXing5RangeIPKhEC2ES2_S2_(ptr noundef nonnull align 8 dereferenceable(16) %0, ptr noundef %1, ptr noundef %2) unnamed_addr #4 comdat align 2 {
  %4 = alloca ptr, align 8
  %5 = alloca ptr, align 8
  %6 = alloca ptr, align 8
  store ptr %0, ptr %4, align 8, !tbaa !109
  store ptr %1, ptr %5, align 8, !tbaa !34
  store ptr %2, ptr %6, align 8, !tbaa !34
  %7 = load ptr, ptr %4, align 8
  %8 = getelementptr inbounds nuw %"struct.ZXing::Range.6", ptr %7, i32 0, i32 0
  %9 = load ptr, ptr %5, align 8, !tbaa !34
  store ptr %9, ptr %8, align 8, !tbaa !111
  %10 = getelementptr inbounds nuw %"struct.ZXing::Range.6", ptr %7, i32 0, i32 1
  %11 = load ptr, ptr %6, align 8, !tbaa !34
  store ptr %11, ptr %10, align 8, !tbaa !113
  ret void
}

; Function Attrs: mustprogress nounwind uwtable
define linkonce_odr void @_ZN5ZXing5RangeINS_10StrideIterIPKhEEEC2ES4_S4_(ptr noundef nonnull align 8 dereferenceable(32) %0, ptr %1, i32 %2, ptr %3, i32 %4) unnamed_addr #4 comdat align 2 {
  %6 = alloca %"struct.ZXing::StrideIter", align 8
  %7 = alloca %"struct.ZXing::StrideIter", align 8
  %8 = alloca ptr, align 8
  %9 = getelementptr inbounds nuw { ptr, i32 }, ptr %6, i32 0, i32 0
  store ptr %1, ptr %9, align 8
  %10 = getelementptr inbounds nuw { ptr, i32 }, ptr %6, i32 0, i32 1
  store i32 %2, ptr %10, align 8
  %11 = getelementptr inbounds nuw { ptr, i32 }, ptr %7, i32 0, i32 0
  store ptr %3, ptr %11, align 8
  %12 = getelementptr inbounds nuw { ptr, i32 }, ptr %7, i32 0, i32 1
  store i32 %4, ptr %12, align 8
  store ptr %0, ptr %8, align 8, !tbaa !106
  %13 = load ptr, ptr %8, align 8
  %14 = getelementptr inbounds nuw %"struct.ZXing::Range", ptr %13, i32 0, i32 0
  call void @llvm.memcpy.p0.p0.i64(ptr align 8 %14, ptr align 8 %6, i64 16, i1 false), !tbaa.struct !108
  %15 = getelementptr inbounds nuw %"struct.ZXing::Range", ptr %13, i32 0, i32 1
  call void @llvm.memcpy.p0.p0.i64(ptr align 8 %15, ptr align 8 %7, i64 16, i1 false), !tbaa.struct !108
  ret void
}

; Function Attrs: mustprogress nounwind uwtable
define linkonce_odr noundef ptr @_ZNKSt6vectorIhSaIhEE4dataEv(ptr noundef nonnull align 8 dereferenceable(24) %0) #4 comdat align 2 {
  %2 = alloca ptr, align 8
  store ptr %0, ptr %2, align 8, !tbaa !22
  %3 = load ptr, ptr %2, align 8
  %4 = getelementptr inbounds nuw %"struct.std::_Vector_base", ptr %3, i32 0, i32 0
  %5 = getelementptr inbounds nuw %"struct.std::_Vector_base<unsigned char, std::allocator<unsigned char>>::_Vector_impl_data", ptr %4, i32 0, i32 0
  %6 = load ptr, ptr %5, align 8, !tbaa !26
  %7 = call noundef ptr @_ZNKSt6vectorIhSaIhEE11_M_data_ptrIhEEPT_S4_(ptr noundef nonnull align 8 dereferenceable(24) %3, ptr noundef %6) #16
  ret ptr %7
}

; Function Attrs: mustprogress uwtable
define linkonce_odr { ptr, ptr } @_ZNK5ZXing9BitMatrix3rowEi(ptr noundef nonnull align 8 dereferenceable(32) %0, i32 noundef %1) #0 comdat align 2 {
  %3 = alloca %"struct.ZXing::Range.6", align 8
  %4 = alloca ptr, align 8
  %5 = alloca i32, align 4
  store ptr %0, ptr %4, align 8, !tbaa !3
  store i32 %1, ptr %5, align 4, !tbaa !8
  %6 = load ptr, ptr %4, align 8
  %7 = getelementptr inbounds nuw %"class.ZXing::BitMatrix", ptr %6, i32 0, i32 2
  %8 = call noundef ptr @_ZNKSt6vectorIhSaIhEE4dataEv(ptr noundef nonnull align 8 dereferenceable(24) %7) #16
  %9 = load i32, ptr %5, align 4, !tbaa !8
  %10 = getelementptr inbounds nuw %"class.ZXing::BitMatrix", ptr %6, i32 0, i32 0
  %11 = load i32, ptr %10, align 8, !tbaa !17
  %12 = mul nsw i32 %9, %11
  %13 = sext i32 %12 to i64
  %14 = getelementptr inbounds i8, ptr %8, i64 %13
  %15 = getelementptr inbounds nuw %"class.ZXing::BitMatrix", ptr %6, i32 0, i32 2
  %16 = call noundef ptr @_ZNKSt6vectorIhSaIhEE4dataEv(ptr noundef nonnull align 8 dereferenceable(24) %15) #16
  %17 = load i32, ptr %5, align 4, !tbaa !8
  %18 = add nsw i32 %17, 1
  %19 = getelementptr inbounds nuw %"class.ZXing::BitMatrix", ptr %6, i32 0, i32 0
  %20 = load i32, ptr %19, align 8, !tbaa !17
  %21 = mul nsw i32 %18, %20
  %22 = sext i32 %21 to i64
  %23 = getelementptr inbounds i8, ptr %16, i64 %22
  call void @_ZN5ZXing5RangeIPKhEC2ES2_S2_(ptr noundef nonnull align 8 dereferenceable(16) %3, ptr noundef %14, ptr noundef %23)
  %24 = load { ptr, ptr }, ptr %3, align 8
  ret { ptr, ptr } %24
}

; Function Attrs: mustprogress uwtable
define linkonce_odr void @_ZNK5ZXing9BitMatrix3colEi(ptr dead_on_unwind noalias writable sret(%"struct.ZXing::Range") align 8 %0, ptr noundef nonnull align 8 dereferenceable(32) %1, i32 noundef %2) #0 comdat align 2 {
  %4 = alloca ptr, align 8
  %5 = alloca i32, align 4
  %6 = alloca %"struct.ZXing::StrideIter", align 8
  %7 = alloca %"struct.ZXing::StrideIter", align 8
  store ptr %1, ptr %4, align 8, !tbaa !3
  store i32 %2, ptr %5, align 4, !tbaa !8
  %8 = load ptr, ptr %4, align 8
  %9 = getelementptr inbounds nuw %"struct.ZXing::StrideIter", ptr %6, i32 0, i32 0
  %10 = getelementptr inbounds nuw %"class.ZXing::BitMatrix", ptr %8, i32 0, i32 2
  %11 = call noundef ptr @_ZNKSt6vectorIhSaIhEE4dataEv(ptr noundef nonnull align 8 dereferenceable(24) %10) #16
  %12 = load i32, ptr %5, align 4, !tbaa !8
  %13 = sext i32 %12 to i64
  %14 = getelementptr inbounds i8, ptr %11, i64 %13
  %15 = getelementptr inbounds nuw %"class.ZXing::BitMatrix", ptr %8, i32 0, i32 1
  %16 = load i32, ptr %15, align 4, !tbaa !10
  %17 = sub nsw i32 %16, 1
  %18 = getelementptr inbounds nuw %"class.ZXing::BitMatrix", ptr %8, i32 0, i32 0
  %19 = load i32, ptr %18, align 8, !tbaa !17
  %20 = mul nsw i32 %17, %19
  %21 = sext i32 %20 to i64
  %22 = getelementptr inbounds i8, ptr %14, i64 %21
  store ptr %22, ptr %9, align 8, !tbaa !51
  %23 = getelementptr inbounds nuw %"struct.ZXing::StrideIter", ptr %6, i32 0, i32 1
  %24 = getelementptr inbounds nuw %"class.ZXing::BitMatrix", ptr %8, i32 0, i32 0
  %25 = load i32, ptr %24, align 8, !tbaa !17
  %26 = sub nsw i32 0, %25
  store i32 %26, ptr %23, align 8, !tbaa !53
  %27 = getelementptr inbounds nuw %"struct.ZXing::StrideIter", ptr %7, i32 0, i32 0
  %28 = getelementptr inbounds nuw %"class.ZXing::BitMatrix", ptr %8, i32 0, i32 2
  %29 = call noundef ptr @_ZNKSt6vectorIhSaIhEE4dataEv(ptr noundef nonnull align 8 dereferenceable(24) %28) #16
  %30 = load i32, ptr %5, align 4, !tbaa !8
  %31 = sext i32 %30 to i64
  %32 = getelementptr inbounds i8, ptr %29, i64 %31
  %33 = getelementptr inbounds nuw %"class.ZXing::BitMatrix", ptr %8, i32 0, i32 0
  %34 = load i32, ptr %33, align 8, !tbaa !17
  %35 = sext i32 %34 to i64
  %36 = sub i64 0, %35
  %37 = getelementptr inbounds i8, ptr %32, i64 %36
  store ptr %37, ptr %27, align 8, !tbaa !51
  %38 = getelementptr inbounds nuw %"struct.ZXing::StrideIter", ptr %7, i32 0, i32 1
  %39 = getelementptr inbounds nuw %"class.ZXing::BitMatrix", ptr %8, i32 0, i32 0
  %40 = load i32, ptr %39, align 8, !tbaa !17
  %41 = sub nsw i32 0, %40
  store i32 %41, ptr %38, align 8, !tbaa !53
  %42 = getelementptr inbounds nuw { ptr, i32 }, ptr %6, i32 0, i32 0
  %43 = load ptr, ptr %42, align 8
  %44 = getelementptr inbounds nuw { ptr, i32 }, ptr %6, i32 0, i32 1
  %45 = load i32, ptr %44, align 8
  %46 = getelementptr inbounds nuw { ptr, i32 }, ptr %7, i32 0, i32 0
  %47 = load ptr, ptr %46, align 8
  %48 = getelementptr inbounds nuw { ptr, i32 }, ptr %7, i32 0, i32 1
  %49 = load i32, ptr %48, align 8
  call void @_ZN5ZXing5RangeINS_10StrideIterIPKhEEEC2ES4_S4_(ptr noundef nonnull align 8 dereferenceable(32) %0, ptr %43, i32 %45, ptr %47, i32 %49)
  ret void
}

; Function Attrs: mustprogress uwtable
define void @_ZN5ZXing13GetPatternRowERKNS_9BitMatrixEiRSt6vectorItSaItEEb(ptr noundef nonnull align 8 dereferenceable(32) %0, i32 noundef %1, ptr noundef nonnull align 8 dereferenceable(24) %2, i1 noundef zeroext %3) #0 {
  %5 = alloca ptr, align 8
  %6 = alloca i32, align 4
  %7 = alloca ptr, align 8
  %8 = alloca i8, align 1
  %9 = alloca %"struct.ZXing::Range", align 8
  %10 = alloca %"struct.ZXing::Range.6", align 8
  store ptr %0, ptr %5, align 8, !tbaa !3
  store i32 %1, ptr %6, align 4, !tbaa !8
  store ptr %2, ptr %7, align 8, !tbaa !44
  %11 = zext i1 %3 to i8
  store i8 %11, ptr %8, align 1, !tbaa !29
  %12 = load i8, ptr %8, align 1, !tbaa !29, !range !31, !noundef !32
  %13 = trunc i8 %12 to i1
  br i1 %13, label %14, label %18

14:                                               ; preds = %4
  %15 = load ptr, ptr %5, align 8, !tbaa !3
  %16 = load i32, ptr %6, align 4, !tbaa !8
  call void @_ZNK5ZXing9BitMatrix3colEi(ptr dead_on_unwind writable sret(%"struct.ZXing::Range") align 8 %9, ptr noundef nonnull align 8 dereferenceable(32) %15, i32 noundef %16)
  %17 = load ptr, ptr %7, align 8, !tbaa !44
  call void @_ZN5ZXing13GetPatternRowINS_10StrideIterIPKhEEEEvNS_5RangeIT_EERSt6vectorItSaItEE(ptr noundef byval(%"struct.ZXing::Range") align 8 %9, ptr noundef nonnull align 8 dereferenceable(24) %17)
  br label %31

18:                                               ; preds = %4
  %19 = load ptr, ptr %5, align 8, !tbaa !3
  %20 = load i32, ptr %6, align 4, !tbaa !8
  %21 = call { ptr, ptr } @_ZNK5ZXing9BitMatrix3rowEi(ptr noundef nonnull align 8 dereferenceable(32) %19, i32 noundef %20)
  %22 = getelementptr inbounds nuw { ptr, ptr }, ptr %10, i32 0, i32 0
  %23 = extractvalue { ptr, ptr } %21, 0
  store ptr %23, ptr %22, align 8
  %24 = getelementptr inbounds nuw { ptr, ptr }, ptr %10, i32 0, i32 1
  %25 = extractvalue { ptr, ptr } %21, 1
  store ptr %25, ptr %24, align 8
  %26 = load ptr, ptr %7, align 8, !tbaa !44
  %27 = getelementptr inbounds nuw { ptr, ptr }, ptr %10, i32 0, i32 0
  %28 = load ptr, ptr %27, align 8
  %29 = getelementptr inbounds nuw { ptr, ptr }, ptr %10, i32 0, i32 1
  %30 = load ptr, ptr %29, align 8
  call void @_ZN5ZXing13GetPatternRowIPKhEEvNS_5RangeIT_EERSt6vectorItSaItEE(ptr %28, ptr %30, ptr noundef nonnull align 8 dereferenceable(24) %26)
  br label %31

31:                                               ; preds = %18, %14
  ret void
}