; Function Attrs: mustprogress uwtable
define void @_ZN5ZXing13GetPatternRowERKNS_9BitMatrixEiRSt6vectorItSaItEEb(ptr noundef nonnull readonly align 8 captures(none) dereferenceable(32) %0, i32 noundef %1, ptr noundef nonnull align 8 dereferenceable(24) %2, i1 noundef zeroext %3) local_unnamed_addr #0 {
  %5 = alloca %"struct.ZXing::Range", align 8
  br i1 %3, label %6, label %23

6:                                                ; preds = %4
  tail call void @llvm.experimental.noalias.scope.decl(metadata !50)
  %7 = getelementptr inbounds nuw i8, ptr %0, i64 8
  %8 = load ptr, ptr %7, align 8, !tbaa !15, !noalias !50
  %9 = sext i32 %1 to i64
  %10 = getelementptr inbounds i8, ptr %8, i64 %9
  %11 = getelementptr inbounds nuw i8, ptr %0, i64 4
  %12 = load i32, ptr %11, align 4, !tbaa !3, !noalias !50
  %13 = add nsw i32 %12, -1
  %14 = load i32, ptr %0, align 8, !tbaa !14, !noalias !50
  %15 = mul nsw i32 %13, %14
  %16 = sext i32 %15 to i64
  %17 = getelementptr inbounds i8, ptr %10, i64 %16
  %18 = sub nsw i32 0, %14
  %19 = sext i32 %14 to i64
  %20 = sub nsw i64 0, %19
  %21 = getelementptr inbounds i8, ptr %10, i64 %20
  store ptr %17, ptr %5, align 8, !tbaa !25, !alias.scope !50
  %.sroa.22.0..sroa_idx.i.i = getelementptr inbounds nuw i8, ptr %5, i64 8
  store i32 %18, ptr %.sroa.22.0..sroa_idx.i.i, align 8, !tbaa !30, !alias.scope !50
  %22 = getelementptr inbounds nuw i8, ptr %5, i64 16
  store ptr %21, ptr %22, align 8, !tbaa !25, !alias.scope !50
  %.sroa.2.0..sroa_idx.i.i = getelementptr inbounds nuw i8, ptr %5, i64 24
  store i32 %18, ptr %.sroa.2.0..sroa_idx.i.i, align 8, !tbaa !30, !alias.scope !50
  tail call void @_ZN5ZXing13GetPatternRowINS_10StrideIterIPKhEEEEvNS_5RangeIT_EERSt6vectorItSaItEE(ptr noundef nonnull byval(%"struct.ZXing::Range") align 8 %5, ptr noundef nonnull align 8 dereferenceable(24) %2)
  br label %34

23:                                               ; preds = %4
  %24 = getelementptr inbounds nuw i8, ptr %0, i64 8
  %25 = load ptr, ptr %24, align 8, !tbaa !15
  %26 = load i32, ptr %0, align 8, !tbaa !14
  %27 = mul nsw i32 %26, %1
  %28 = sext i32 %27 to i64
  %29 = getelementptr inbounds i8, ptr %25, i64 %28
  %30 = add nsw i32 %1, 1
  %31 = mul nsw i32 %26, %30
  %32 = sext i32 %31 to i64
  %33 = getelementptr inbounds i8, ptr %25, i64 %32
  tail call void @_ZN5ZXing13GetPatternRowIPKhEEvNS_5RangeIT_EERSt6vectorItSaItEE(ptr %29, ptr %33, ptr noundef nonnull align 8 dereferenceable(24) %2)
  br label %34

34:                                               ; preds = %23, %6
  ret void
}